; Function Attrs: nounwind sspstrong uwtable
define internal i64 @range_to_a(i64 noundef %0) #0 {
  %2 = inttoptr i64 %0 to ptr
  %3 = load i64, ptr %2, align 8, !tbaa !11
  %4 = and i64 %3, 1040384
  %.not.i.i.i = icmp eq i64 %4, 0
  br i1 %.not.i.i.i, label %7, label %5

5:                                                ; preds = %1
  %6 = getelementptr inbounds nuw i8, ptr %2, i64 16
  br label %RANGE_END.exit

7:                                                ; preds = %1
  %8 = getelementptr inbounds nuw i8, ptr %2, i64 24
  %9 = load ptr, ptr %8, align 8, !tbaa !13
  br label %RANGE_END.exit

RANGE_END.exit:                                   ; preds = %5, %7
  %.0.i.i.i = phi ptr [ %6, %5 ], [ %9, %7 ]
  %10 = getelementptr i8, ptr %.0.i.i.i, i64 8
  %11 = load i64, ptr %10, align 8, !tbaa !7
  %12 = icmp eq i64 %11, 4
  br i1 %12, label %13, label %15

13:                                               ; preds = %RANGE_END.exit
  %14 = load i64, ptr @rb_eRangeError, align 8, !tbaa !7
  tail call void (i64, ptr, ...) @rb_raise(i64 noundef %14, ptr noundef nonnull @.str.57) #14
  unreachable

15:                                               ; preds = %RANGE_END.exit
  %16 = tail call i64 @rb_call_super(i32 noundef 0, ptr noundef null) #13
  ret i64 %16
}